((lp0
(I256
I203
tp1
a(I267
I252
tp2
a(I394
I186
tp3
a(I396
I32
tp4
a(I318
I49
tp5
a(I360
I225
tp6
a(I390
I261
tp7
a(I402
I324
tp8
a(I518
I356
tp9
a(I281
I313
tp10
a(I238
I384
tp11
a(I148
I432
tp12
a(I127
I477
tp13
a(I164
I471
tp14
a(I216
I467
tp15
a(I323
I426
tp16
a(I191
I302
tp17
a(I133
I200
tp18
a(I263
I27
tp19
a(I128
I379
tp20
a(I111
I350
tp21
a(I69
I372
tp22
a(I130
I545
tp23
a(I367
I465
tp24
a(I542
I362
tp25
a(I459
I270
tp26
a(I578
I190
tp27
a(I629
I257
tp28
a(I560
I137
tp29
a(I529
I132
tp30
a(I446
I93
tp31
a(I418
I48
tp32
a(I474
I181
tp33
a(I429
I167
tp34
a(I608
I87
tp35
a(I612
I24
tp36
a(I547
I21
tp37
a(I509
I60
tp38
a(I498
I2
tp39
a(I301
I140
tp40
a(I336
I155
tp41
a(lp42
(g1
g2
tp43
a(g2
g6
tp44
a(g6
g3
tp45
a(g5
g4
tp46
a(g6
g7
tp47
a(g7
g8
tp48
a(g8
g9
tp49
a(g2
g10
tp50
a(g10
g11
tp51
a(g11
g12
tp52
a(g12
g13
tp53
a(g13
g14
tp54
a(g14
g15
tp55
a(g15
g16
tp56
a(g16
g8
tp57
a(g8
g10
tp58
a(g2
g17
tp59
a(g17
g18
tp60
a(g18
g19
tp61
a(g19
g5
tp62
a(g17
g20
tp63
a(g20
g12
tp64
a(g20
g21
tp65
a(g21
g22
tp66
a(g22
g18
tp67
a(g13
g23
tp68
a(g23
g24
tp69
a(g24
g25
tp70
a(g25
g9
tp71
a(g9
g26
tp72
a(g26
g3
tp73
a(g26
g27
tp74
a(g27
g28
tp75
a(g28
g25
tp76
a(g27
g29
tp77
a(g29
g30
tp78
a(g30
g31
tp79
a(g31
g32
tp80
a(g32
g4
tp81
a(g30
g33
tp82
a(g33
g34
tp83
a(g34
g3
tp84
a(g29
g35
tp85
a(g35
g36
tp86
a(g36
g37
tp87
a(g37
g38
tp88
a(g38
g31
tp89
a(g37
g39
tp90
a(g39
g32
tp91
a(g1
g40
tp92
a(g40
g5
tp93
a(g28
g26
tp94
a(g40
g41
tp95
ag2
tp96
.